target datalayout = "e-m:e-p270:32:32-p271:32:32-p272:64:64-i64:64-i128:128-f80:128-n8:16:32:64-S128"
target triple = "x86_64-pc-linux-gnu"

%struct.H5FL_reg_head_t = type { i8, i32, i32, ptr, i64, ptr }
%struct.H5C_class_t = type { i32, ptr, i32, i32, ptr, ptr, ptr, ptr, ptr, ptr, ptr, ptr, ptr, ptr }
%struct.H5O_t = type { %struct.H5C_cache_entry_t, i64, i64, i8, i64, i8, i32, i8, i8, i64, i64, i64, i64, i32, i32, i64, i64, ptr, i64, i64, i64, i64, ptr, i8, ptr }
%struct.H5C_cache_entry_t = type { ptr, i64, i64, ptr, i8, ptr, i8, i8, i8, i8, i32, i8, i8, i8, i8, i8, i32, ptr, i32, i32, i32, i32, i32, i8, i8, ptr, ptr, ptr, ptr, ptr, ptr, i8, i32, i8, i64, ptr, i64, i64, i32, i8, i32, i32, i8, ptr, ptr, ptr }
%struct.H5O_chunk_proxy_t = type { %struct.H5C_cache_entry_t, ptr, ptr, i32, ptr }
%struct.H5O_chunk_t = type { i64, i64, i64, ptr, ptr }

@H5_H5O_chunk_proxy_t_reg_free_list = global %struct.H5FL_reg_head_t { i8 0, i32 0, i32 0, ptr @.str, i64 280, ptr null }, align 8
@.str.1 = private unnamed_addr constant [102 x i8] c"generated/home/dtcxzyw/WorkSpace/Projects/compilers/llvm-opt-benchmark/bench/hdf5/hdf5/src/H5Ochunk.c\00", align 1
@__func__.H5O__chunk_add = private unnamed_addr constant [15 x i8] c"H5O__chunk_add\00", align 1
@H5E_RESOURCE_g = external global i64, align 8
@H5E_NOSPACE_g = external global i64, align 8
@.str.2 = private unnamed_addr constant [25 x i8] c"memory allocation failed\00", align 1
@H5E_OHDR_g = external global i64, align 8
@H5E_CANTINC_g = external global i64, align 8
@.str.3 = private unnamed_addr constant [49 x i8] c"can't increment reference count on object header\00", align 1
@H5E_CANTPROTECT_g = external global i64, align 8
@.str.4 = private unnamed_addr constant [35 x i8] c"unable to load object header chunk\00", align 1
@H5AC_OHDR_CHK = external constant [1 x %struct.H5C_class_t], align 16
@H5E_CANTINSERT_g = external global i64, align 8
@.str.5 = private unnamed_addr constant [36 x i8] c"unable to cache object header chunk\00", align 1
@H5E_CANTRELEASE_g = external global i64, align 8
@.str.6 = private unnamed_addr constant [38 x i8] c"unable to destroy object header chunk\00", align 1
@H5E_CANTUNPROTECT_g = external global i64, align 8
@.str.7 = private unnamed_addr constant [40 x i8] c"unable to unprotect object header chunk\00", align 1
@H5E_CANTDEC_g = external global i64, align 8
@.str.9 = private unnamed_addr constant [49 x i8] c"can't decrement reference count on object header\00", align 1
@__func__.H5O__chunk_dest = private unnamed_addr constant [16 x i8] c"H5O__chunk_dest\00", align 1

; Function Attrs: nounwind uwtable
define i32 @H5O__chunk_dest(ptr noundef %0) #0 {
  %2 = alloca ptr, align 8
  %3 = alloca i32, align 4
  %4 = alloca i8, align 1
  store ptr %0, ptr %2, align 8
  store i32 0, ptr %3, align 4
  store i8 0, ptr %4, align 1
  %5 = load ptr, ptr %2, align 8
  %6 = getelementptr inbounds %struct.H5O_chunk_proxy_t, ptr %5, i32 0, i32 2
  %7 = load ptr, ptr %6, align 8
  %8 = call i32 @H5O__dec_rc(ptr noundef %7)
  %9 = icmp slt i32 %8, 0
  br i1 %9, label %10, label %25

10:                                               ; preds = %1
  br label %11

11:                                               ; preds = %10
  br label %12

12:                                               ; preds = %11
  br label %13

13:                                               ; preds = %12
  %14 = load i64, ptr @H5E_OHDR_g, align 8
  %15 = load i64, ptr @H5E_CANTDEC_g, align 8
  %16 = call i32 (ptr, ptr, i32, i64, i64, ptr, ...) @H5E_printf_stack(ptr noundef @.str.1, ptr noundef @__func__.H5O__chunk_dest, i32 noundef 393, i64 noundef %14, i64 noundef %15, ptr noundef @.str.9)
  br label %17

17:                                               ; preds = %13
  store i8 1, ptr %4, align 1
  %18 = load i8, ptr %4, align 1
  %19 = trunc i8 %18 to i1
  %20 = zext i1 %19 to i8
  store i8 %20, ptr %4, align 1
  br label %21

21:                                               ; preds = %17
  br label %22

22:                                               ; preds = %21
  store i32 -1, ptr %3, align 4
  br label %26

23:                                               ; No predecessors!
  br label %24

24:                                               ; preds = %23
  br label %25

25:                                               ; preds = %24, %1
  br label %26

26:                                               ; preds = %25, %22
  %27 = load ptr, ptr %2, align 8
  %28 = call ptr @H5FL_reg_free(ptr noundef @H5_H5O_chunk_proxy_t_reg_free_list, ptr noundef %27)
  store ptr %28, ptr %2, align 8
  %29 = load i32, ptr %3, align 4
  ret i32 %29
}

; Function Attrs: nounwind uwtable
define i32 @H5O__chunk_add(ptr noundef %0, ptr noundef %1, i32 noundef %2, i32 noundef %3) #0 {
  %5 = alloca ptr, align 8
  %6 = alloca ptr, align 8
  %7 = alloca i32, align 4
  %8 = alloca i32, align 4
  %9 = alloca ptr, align 8
  %10 = alloca ptr, align 8
  %11 = alloca i32, align 4
  %12 = alloca i64, align 8
  %13 = alloca i8, align 1
  store ptr %0, ptr %5, align 8
  store ptr %1, ptr %6, align 8
  store i32 %2, ptr %7, align 4
  store i32 %3, ptr %8, align 4
  store ptr null, ptr %9, align 8
  store ptr null, ptr %10, align 8
  store i32 0, ptr %11, align 4
  store i64 -1, ptr %12, align 8
  store i8 0, ptr %13, align 1
  %14 = load ptr, ptr %6, align 8
  %15 = getelementptr inbounds %struct.H5O_t, ptr %14, i32 0, i32 0
  %16 = getelementptr inbounds %struct.H5C_cache_entry_t, ptr %15, i32 0, i32 1
  %17 = load i64, ptr %16, align 8
  call void @H5AC_tag(i64 noundef %17, ptr noundef %12)
  %18 = call noalias ptr @H5FL_reg_calloc(ptr noundef @H5_H5O_chunk_proxy_t_reg_free_list)
  store ptr %18, ptr %9, align 8
  %19 = icmp eq ptr null, %18
  br i1 %19, label %20, label %35

20:                                               ; preds = %4
  br label %21

21:                                               ; preds = %20
  br label %22

22:                                               ; preds = %21
  br label %23

23:                                               ; preds = %22
  %24 = load i64, ptr @H5E_RESOURCE_g, align 8
  %25 = load i64, ptr @H5E_NOSPACE_g, align 8
  %26 = call i32 (ptr, ptr, i32, i64, i64, ptr, ...) @H5E_printf_stack(ptr noundef @.str.1, ptr noundef @__func__.H5O__chunk_add, i32 noundef 94, i64 noundef %24, i64 noundef %25, ptr noundef @.str.2)
  br label %27

27:                                               ; preds = %23
  store i8 1, ptr %13, align 1
  %28 = load i8, ptr %13, align 1
  %29 = trunc i8 %28 to i1
  %30 = zext i1 %29 to i8
  store i8 %30, ptr %13, align 1
  br label %31

31:                                               ; preds = %27
  br label %32

32:                                               ; preds = %31
  store i32 -1, ptr %11, align 4
  br label %120

33:                                               ; No predecessors!
  br label %34

34:                                               ; preds = %33
  br label %35

35:                                               ; preds = %34, %4
  %36 = load ptr, ptr %6, align 8
  %37 = call i32 @H5O__inc_rc(ptr noundef %36)
  %38 = icmp slt i32 %37, 0
  br i1 %38, label %39, label %54

39:                                               ; preds = %35
  br label %40

40:                                               ; preds = %39
  br label %41

41:                                               ; preds = %40
  br label %42

42:                                               ; preds = %41
  %43 = load i64, ptr @H5E_OHDR_g, align 8
  %44 = load i64, ptr @H5E_CANTINC_g, align 8
  %45 = call i32 (ptr, ptr, i32, i64, i64, ptr, ...) @H5E_printf_stack(ptr noundef @.str.1, ptr noundef @__func__.H5O__chunk_add, i32 noundef 98, i64 noundef %43, i64 noundef %44, ptr noundef @.str.3)
  br label %46

46:                                               ; preds = %42
  store i8 1, ptr %13, align 1
  %47 = load i8, ptr %13, align 1
  %48 = trunc i8 %47 to i1
  %49 = zext i1 %48 to i8
  store i8 %49, ptr %13, align 1
  br label %50

50:                                               ; preds = %46
  br label %51

51:                                               ; preds = %50
  store i32 -1, ptr %11, align 4
  br label %120

52:                                               ; No predecessors!
  br label %53

53:                                               ; preds = %52
  br label %54

54:                                               ; preds = %53, %35
  %55 = load ptr, ptr %5, align 8
  %56 = load ptr, ptr %9, align 8
  %57 = getelementptr inbounds %struct.H5O_chunk_proxy_t, ptr %56, i32 0, i32 1
  store ptr %55, ptr %57, align 8
  %58 = load ptr, ptr %6, align 8
  %59 = load ptr, ptr %9, align 8
  %60 = getelementptr inbounds %struct.H5O_chunk_proxy_t, ptr %59, i32 0, i32 2
  store ptr %58, ptr %60, align 8
  %61 = load i32, ptr %7, align 4
  %62 = load ptr, ptr %9, align 8
  %63 = getelementptr inbounds %struct.H5O_chunk_proxy_t, ptr %62, i32 0, i32 3
  store i32 %61, ptr %63, align 8
  %64 = load i32, ptr %8, align 4
  %65 = icmp ne i32 %64, 0
  br i1 %65, label %66, label %91

66:                                               ; preds = %54
  %67 = load ptr, ptr %5, align 8
  %68 = load ptr, ptr %6, align 8
  %69 = load i32, ptr %8, align 4
  %70 = call ptr @H5O__chunk_protect(ptr noundef %67, ptr noundef %68, i32 noundef %69)
  store ptr %70, ptr %10, align 8
  %71 = icmp eq ptr null, %70
  br i1 %71, label %72, label %87

72:                                               ; preds = %66
  br label %73

73:                                               ; preds = %72
  br label %74

74:                                               ; preds = %73
  br label %75

75:                                               ; preds = %74
  %76 = load i64, ptr @H5E_OHDR_g, align 8
  %77 = load i64, ptr @H5E_CANTPROTECT_g, align 8
  %78 = call i32 (ptr, ptr, i32, i64, i64, ptr, ...) @H5E_printf_stack(ptr noundef @.str.1, ptr noundef @__func__.H5O__chunk_add, i32 noundef 108, i64 noundef %76, i64 noundef %77, ptr noundef @.str.4)
  br label %79

79:                                               ; preds = %75
  store i8 1, ptr %13, align 1
  %80 = load i8, ptr %13, align 1
  %81 = trunc i8 %80 to i1
  %82 = zext i1 %81 to i8
  store i8 %82, ptr %13, align 1
  br label %83

83:                                               ; preds = %79
  br label %84

84:                                               ; preds = %83
  store i32 -1, ptr %11, align 4
  br label %120

85:                                               ; No predecessors!
  br label %86

86:                                               ; preds = %85
  br label %87

87:                                               ; preds = %86, %66
  %88 = load ptr, ptr %10, align 8
  %89 = load ptr, ptr %9, align 8
  %90 = getelementptr inbounds %struct.H5O_chunk_proxy_t, ptr %89, i32 0, i32 4
  store ptr %88, ptr %90, align 8
  br label %91

91:                                               ; preds = %87, %54
  %92 = load ptr, ptr %5, align 8
  %93 = load ptr, ptr %6, align 8
  %94 = getelementptr inbounds %struct.H5O_t, ptr %93, i32 0, i32 22
  %95 = load ptr, ptr %94, align 8
  %96 = load i32, ptr %7, align 4
  %97 = zext i32 %96 to i64
  %98 = getelementptr inbounds %struct.H5O_chunk_t, ptr %95, i64 %97
  %99 = getelementptr inbounds %struct.H5O_chunk_t, ptr %98, i32 0, i32 0
  %100 = load i64, ptr %99, align 8
  %101 = load ptr, ptr %9, align 8
  %102 = call i32 @H5AC_insert_entry(ptr noundef %92, ptr noundef @H5AC_OHDR_CHK, i64 noundef %100, ptr noundef %101, i32 noundef 0)
  %103 = icmp slt i32 %102, 0
  br i1 %103, label %104, label %119

104:                                              ; preds = %91
  br label %105

105:                                              ; preds = %104
  br label %106

106:                                              ; preds = %105
  br label %107

107:                                              ; preds = %106
  %108 = load i64, ptr @H5E_OHDR_g, align 8
  %109 = load i64, ptr @H5E_CANTINSERT_g, align 8
  %110 = call i32 (ptr, ptr, i32, i64, i64, ptr, ...) @H5E_printf_stack(ptr noundef @.str.1, ptr noundef @__func__.H5O__chunk_add, i32 noundef 114, i64 noundef %108, i64 noundef %109, ptr noundef @.str.5)
  br label %111

111:                                              ; preds = %107
  store i8 1, ptr %13, align 1
  %112 = load i8, ptr %13, align 1
  %113 = trunc i8 %112 to i1
  %114 = zext i1 %113 to i8
  store i8 %114, ptr %13, align 1
  br label %115

115:                                              ; preds = %111
  br label %116

116:                                              ; preds = %115
  store i32 -1, ptr %11, align 4
  br label %120

117:                                              ; No predecessors!
  br label %118

118:                                              ; preds = %117
  br label %119

119:                                              ; preds = %118, %91
  store ptr null, ptr %9, align 8
  br label %120

120:                                              ; preds = %119, %116, %84, %51, %32
  %121 = load i32, ptr %11, align 4
  %122 = icmp slt i32 %121, 0
  br i1 %122, label %123, label %144

123:                                              ; preds = %120
  %124 = load ptr, ptr %9, align 8
  %125 = icmp ne ptr %124, null
  br i1 %125, label %126, label %143

126:                                              ; preds = %123
  %127 = load ptr, ptr %9, align 8
  %128 = call i32 @H5O__chunk_dest(ptr noundef %127)
  %129 = icmp slt i32 %128, 0
  br i1 %129, label %130, label %143

130:                                              ; preds = %126
  br label %131

131:                                              ; preds = %130
  br label %132

132:                                              ; preds = %131
  br label %133

133:                                              ; preds = %132
  %134 = load i64, ptr @H5E_OHDR_g, align 8
  %135 = load i64, ptr @H5E_CANTRELEASE_g, align 8
  %136 = call i32 (ptr, ptr, i32, i64, i64, ptr, ...) @H5E_printf_stack(ptr noundef @.str.1, ptr noundef @__func__.H5O__chunk_add, i32 noundef 122, i64 noundef %134, i64 noundef %135, ptr noundef @.str.6)
  br label %137

137:                                              ; preds = %133
  store i8 1, ptr %13, align 1
  %138 = load i8, ptr %13, align 1
  %139 = trunc i8 %138 to i1
  %140 = zext i1 %139 to i8
  store i8 %140, ptr %13, align 1
  br label %141

141:                                              ; preds = %137
  store i32 -1, ptr %11, align 4
  br label %142

142:                                              ; preds = %141
  br label %143

143:                                              ; preds = %142, %126, %123
  br label %144

144:                                              ; preds = %143, %120
  %145 = load ptr, ptr %10, align 8
  %146 = icmp ne ptr %145, null
  br i1 %146, label %147, label %166

147:                                              ; preds = %144
  %148 = load ptr, ptr %5, align 8
  %149 = load ptr, ptr %10, align 8
  %150 = call i32 @H5O__chunk_unprotect(ptr noundef %148, ptr noundef %149, i1 noundef zeroext false)
  %151 = icmp slt i32 %150, 0
  br i1 %151, label %152, label %165

152:                                              ; preds = %147
  br label %153

153:                                              ; preds = %152
  br label %154

154:                                              ; preds = %153
  br label %155

155:                                              ; preds = %154
  %156 = load i64, ptr @H5E_OHDR_g, align 8
  %157 = load i64, ptr @H5E_CANTUNPROTECT_g, align 8
  %158 = call i32 (ptr, ptr, i32, i64, i64, ptr, ...) @H5E_printf_stack(ptr noundef @.str.1, ptr noundef @__func__.H5O__chunk_add, i32 noundef 127, i64 noundef %156, i64 noundef %157, ptr noundef @.str.7)
  br label %159

159:                                              ; preds = %155
  store i8 1, ptr %13, align 1
  %160 = load i8, ptr %13, align 1
  %161 = trunc i8 %160 to i1
  %162 = zext i1 %161 to i8
  store i8 %162, ptr %13, align 1
  br label %163

163:                                              ; preds = %159
  store i32 -1, ptr %11, align 4
  br label %164

164:                                              ; preds = %163
  br label %165

165:                                              ; preds = %164, %147
  br label %166

166:                                              ; preds = %165, %144
  %167 = load i64, ptr %12, align 8
  call void @H5AC_tag(i64 noundef %167, ptr noundef null)
  %168 = load i32, ptr %11, align 4
  ret i32 %168
}