; Function Attrs: nounwind uwtable
define range(i32 -1, 1) i32 @H5O__chunk_add(ptr noundef %0, ptr noundef %1, i32 noundef %2, i32 noundef %3) local_unnamed_addr #0 {
  %5 = alloca i64, align 8
  store i64 -1, ptr %5, align 8
  %6 = getelementptr inbounds i8, ptr %1, i64 8
  %7 = load i64, ptr %6, align 8
  call void @H5AC_tag(i64 noundef %7, ptr noundef nonnull %5) #3
  %8 = call noalias ptr @H5FL_reg_calloc(ptr noundef nonnull @H5_H5O_chunk_proxy_t_reg_free_list) #3
  %9 = icmp eq ptr %8, null
  br i1 %9, label %.thread.thread, label %13

.thread.thread:                                   ; preds = %4
  %10 = load i64, ptr @H5E_RESOURCE_g, align 8
  %11 = load i64, ptr @H5E_NOSPACE_g, align 8
  %12 = call i32 (ptr, ptr, i32, i64, i64, ptr, ...) @H5E_printf_stack(ptr noundef nonnull @.str.1, ptr noundef nonnull @__func__.H5O__chunk_add, i32 noundef 94, i64 noundef %10, i64 noundef %11, ptr noundef nonnull @.str.2) #3
  br label %66

13:                                               ; preds = %4
  %14 = call i32 @H5O__inc_rc(ptr noundef nonnull %1) #3
  %15 = icmp slt i32 %14, 0
  br i1 %15, label %16, label %20

16:                                               ; preds = %13
  %17 = load i64, ptr @H5E_OHDR_g, align 8
  %18 = load i64, ptr @H5E_CANTINC_g, align 8
  %19 = call i32 (ptr, ptr, i32, i64, i64, ptr, ...) @H5E_printf_stack(ptr noundef nonnull @.str.1, ptr noundef nonnull @__func__.H5O__chunk_add, i32 noundef 98, i64 noundef %17, i64 noundef %18, ptr noundef nonnull @.str.3) #3
  br label %45

20:                                               ; preds = %13
  %21 = getelementptr inbounds i8, ptr %8, i64 248
  store ptr %0, ptr %21, align 8
  %22 = getelementptr inbounds i8, ptr %8, i64 256
  store ptr %1, ptr %22, align 8
  %23 = getelementptr inbounds i8, ptr %8, i64 264
  store i32 %2, ptr %23, align 8
  %.not = icmp eq i32 %3, 0
  br i1 %.not, label %33, label %24

24:                                               ; preds = %20
  %25 = call ptr @H5O__chunk_protect(ptr noundef %0, ptr noundef nonnull %1, i32 noundef %3)
  %26 = icmp eq ptr %25, null
  br i1 %26, label %27, label %31

27:                                               ; preds = %24
  %28 = load i64, ptr @H5E_OHDR_g, align 8
  %29 = load i64, ptr @H5E_CANTPROTECT_g, align 8
  %30 = call i32 (ptr, ptr, i32, i64, i64, ptr, ...) @H5E_printf_stack(ptr noundef nonnull @.str.1, ptr noundef nonnull @__func__.H5O__chunk_add, i32 noundef 108, i64 noundef %28, i64 noundef %29, ptr noundef nonnull @.str.4) #3
  br label %45

31:                                               ; preds = %24
  %32 = getelementptr inbounds i8, ptr %8, i64 272
  store ptr %25, ptr %32, align 8
  br label %33

33:                                               ; preds = %31, %20
  %.031 = phi ptr [ %25, %31 ], [ null, %20 ]
  %34 = getelementptr inbounds i8, ptr %1, i64 392
  %35 = load ptr, ptr %34, align 8
  %36 = zext i32 %2 to i64
  %37 = getelementptr inbounds %struct.H5O_chunk_t, ptr %35, i64 %36
  %38 = load i64, ptr %37, align 8
  %39 = call i32 @H5AC_insert_entry(ptr noundef %0, ptr noundef nonnull @H5AC_OHDR_CHK, i64 noundef %38, ptr noundef nonnull %8, i32 noundef 0) #3
  %40 = icmp slt i32 %39, 0
  br i1 %40, label %41, label %.thread

41:                                               ; preds = %33
  %42 = load i64, ptr @H5E_OHDR_g, align 8
  %43 = load i64, ptr @H5E_CANTINSERT_g, align 8
  %44 = call i32 (ptr, ptr, i32, i64, i64, ptr, ...) @H5E_printf_stack(ptr noundef nonnull @.str.1, ptr noundef nonnull @__func__.H5O__chunk_add, i32 noundef 114, i64 noundef %42, i64 noundef %43, ptr noundef nonnull @.str.5) #3
  br label %45

45:                                               ; preds = %16, %27, %41
  %.132 = phi ptr [ null, %16 ], [ null, %27 ], [ %.031, %41 ]
  %46 = getelementptr inbounds i8, ptr %8, i64 256
  %47 = load ptr, ptr %46, align 8
  %48 = call i32 @H5O__dec_rc(ptr noundef %47) #3
  %49 = icmp slt i32 %48, 0
  br i1 %49, label %51, label %H5O__chunk_dest.exit

H5O__chunk_dest.exit:                             ; preds = %45
  %50 = call ptr @H5FL_reg_free(ptr noundef nonnull @H5_H5O_chunk_proxy_t_reg_free_list, ptr noundef nonnull %8) #3
  br label %.thread

51:                                               ; preds = %45
  %52 = load i64, ptr @H5E_OHDR_g, align 8
  %53 = load i64, ptr @H5E_CANTDEC_g, align 8
  %54 = call i32 (ptr, ptr, i32, i64, i64, ptr, ...) @H5E_printf_stack(ptr noundef nonnull @.str.1, ptr noundef nonnull @__func__.H5O__chunk_dest, i32 noundef 393, i64 noundef %52, i64 noundef %53, ptr noundef nonnull @.str.9) #3
  %55 = call ptr @H5FL_reg_free(ptr noundef nonnull @H5_H5O_chunk_proxy_t_reg_free_list, ptr noundef nonnull %8) #3
  %56 = load i64, ptr @H5E_OHDR_g, align 8
  %57 = load i64, ptr @H5E_CANTRELEASE_g, align 8
  %58 = call i32 (ptr, ptr, i32, i64, i64, ptr, ...) @H5E_printf_stack(ptr noundef nonnull @.str.1, ptr noundef nonnull @__func__.H5O__chunk_add, i32 noundef 122, i64 noundef %56, i64 noundef %57, ptr noundef nonnull @.str.6) #3
  br label %.thread

.thread:                                          ; preds = %33, %H5O__chunk_dest.exit, %51
  %.13244 = phi ptr [ %.132, %51 ], [ %.132, %H5O__chunk_dest.exit ], [ %.031, %33 ]
  %.1 = phi i32 [ -1, %51 ], [ -1, %H5O__chunk_dest.exit ], [ 0, %33 ]
  %.not39 = icmp eq ptr %.13244, null
  br i1 %.not39, label %66, label %59

59:                                               ; preds = %.thread
  %60 = call i32 @H5O__chunk_unprotect(ptr noundef %0, ptr noundef nonnull %.13244, i1 noundef zeroext false)
  %61 = icmp slt i32 %60, 0
  br i1 %61, label %62, label %66

62:                                               ; preds = %59
  %63 = load i64, ptr @H5E_OHDR_g, align 8
  %64 = load i64, ptr @H5E_CANTUNPROTECT_g, align 8
  %65 = call i32 (ptr, ptr, i32, i64, i64, ptr, ...) @H5E_printf_stack(ptr noundef nonnull @.str.1, ptr noundef nonnull @__func__.H5O__chunk_add, i32 noundef 127, i64 noundef %63, i64 noundef %64, ptr noundef nonnull @.str.7) #3
  br label %66

66:                                               ; preds = %.thread.thread, %59, %62, %.thread
  %.2 = phi i32 [ -1, %62 ], [ %.1, %59 ], [ %.1, %.thread ], [ -1, %.thread.thread ]
  %67 = load i64, ptr %5, align 8
  call void @H5AC_tag(i64 noundef %67, ptr noundef null) #3
  ret i32 %.2
}